target datalayout = "e-m:e-p270:32:32-p271:32:32-p272:64:64-i64:64-i128:128-f80:128-n8:16:32:64-S128"
target triple = "x86_64-pc-linux-gnu"

%struct.FunctionCallInfoBaseData = type { ptr, ptr, ptr, i32, i8, i16, [0 x %struct.NullableDatum] }
%struct.NullableDatum = type { i64, i8 }
%struct.FmgrInfo = type { ptr, i32, i16, i8, i8, i8, ptr, ptr, ptr }

@.str.2 = private unnamed_addr constant [10 x i8] c"pg_proc.c\00", align 1
@.str.27 = private unnamed_addr constant [36 x i8] c"cache lookup failed for function %u\00", align 1
@__func__.fmgr_c_validator = private unnamed_addr constant [17 x i8] c"fmgr_c_validator\00", align 1

; Function Attrs: inlinehint nounwind uwtable
define internal ptr @DatumGetPointer(i64 noundef %0) #4 {
  %2 = alloca i64, align 8
  store i64 %0, ptr %2, align 8
  %3 = load i64, ptr %2, align 8
  %4 = inttoptr i64 %3 to ptr
  ret ptr %4
}

; Function Attrs: inlinehint nounwind uwtable
define internal i64 @ObjectIdGetDatum(i32 noundef %0) #4 {
  %2 = alloca i32, align 4
  store i32 %0, ptr %2, align 4
  %3 = load i32, ptr %2, align 4
  %4 = zext i32 %3 to i64
  ret i64 %4
}

; Function Attrs: inlinehint nounwind uwtable
define internal i32 @DatumGetObjectId(i64 noundef %0) #4 {
  %2 = alloca i64, align 8
  store i64 %0, ptr %2, align 8
  %3 = load i64, ptr %2, align 8
  %4 = trunc i64 %3 to i32
  ret i32 %4
}

; Function Attrs: nounwind uwtable
define dso_local i64 @fmgr_c_validator(ptr noundef %0) #0 {
  %2 = alloca i64, align 8
  %3 = alloca ptr, align 8
  %4 = alloca i32, align 4
  %5 = alloca ptr, align 8
  %6 = alloca ptr, align 8
  %7 = alloca i64, align 8
  %8 = alloca ptr, align 8
  %9 = alloca ptr, align 8
  %10 = alloca i32, align 4
  store ptr %0, ptr %3, align 8
  call void @llvm.lifetime.start.p0(i64 4, ptr %4) #8
  %11 = load ptr, ptr %3, align 8
  %12 = getelementptr inbounds nuw %struct.FunctionCallInfoBaseData, ptr %11, i32 0, i32 6
  %13 = getelementptr inbounds [0 x %struct.NullableDatum], ptr %12, i64 0, i64 0
  %14 = getelementptr inbounds nuw %struct.NullableDatum, ptr %13, i32 0, i32 0
  %15 = load i64, ptr %14, align 8
  %16 = call i32 @DatumGetObjectId(i64 noundef %15)
  store i32 %16, ptr %4, align 4
  call void @llvm.lifetime.start.p0(i64 8, ptr %5) #8
  call void @llvm.lifetime.start.p0(i64 8, ptr %6) #8
  call void @llvm.lifetime.start.p0(i64 8, ptr %7) #8
  call void @llvm.lifetime.start.p0(i64 8, ptr %8) #8
  call void @llvm.lifetime.start.p0(i64 8, ptr %9) #8
  %17 = load ptr, ptr %3, align 8
  %18 = getelementptr inbounds nuw %struct.FunctionCallInfoBaseData, ptr %17, i32 0, i32 0
  %19 = load ptr, ptr %18, align 8
  %20 = getelementptr inbounds nuw %struct.FmgrInfo, ptr %19, i32 0, i32 1
  %21 = load i32, ptr %20, align 8
  %22 = load i32, ptr %4, align 4
  %23 = call zeroext i1 @CheckFunctionValidatorAccess(i32 noundef %21, i32 noundef %22)
  br i1 %23, label %25, label %24

24:                                               ; preds = %1
  store i64 0, ptr %2, align 8
  store i32 1, ptr %10, align 4
  br label %61

25:                                               ; preds = %1
  %26 = load i32, ptr %4, align 4
  %27 = call i64 @ObjectIdGetDatum(i32 noundef %26)
  %28 = call ptr @SearchSysCache1(i32 noundef 47, i64 noundef %27)
  store ptr %28, ptr %6, align 8
  %29 = load ptr, ptr %6, align 8
  %30 = icmp ne ptr %29, null
  br i1 %30, label %43, label %31

31:                                               ; preds = %25
  br label %32

32:                                               ; preds = %31
  br i1 true, label %33, label %35

33:                                               ; preds = %32
  %34 = call zeroext i1 @errstart_cold(i32 noundef 21, ptr noundef null) #9
  br i1 %34, label %37, label %40

35:                                               ; preds = %32
  %36 = call zeroext i1 @errstart(i32 noundef 21, ptr noundef null)
  br i1 %36, label %37, label %40

37:                                               ; preds = %35, %33
  %38 = load i32, ptr %4, align 4
  %39 = call i32 (ptr, ...) @errmsg_internal(ptr noundef @.str.27, i32 noundef %38)
  call void @errfinish(ptr noundef @.str.2, i32 noundef 788, ptr noundef @__func__.fmgr_c_validator)
  br label %40

40:                                               ; preds = %37, %35, %33
  unreachable

41:                                               ; No predecessors!
  br label %42

42:                                               ; preds = %41
  br label %43

43:                                               ; preds = %42, %25
  %44 = load ptr, ptr %6, align 8
  %45 = call i64 @SysCacheGetAttrNotNull(i32 noundef 47, ptr noundef %44, i16 noundef signext 26)
  store i64 %45, ptr %7, align 8
  %46 = load i64, ptr %7, align 8
  %47 = call ptr @DatumGetPointer(i64 noundef %46)
  %48 = call ptr @text_to_cstring(ptr noundef %47)
  store ptr %48, ptr %8, align 8
  %49 = load ptr, ptr %6, align 8
  %50 = call i64 @SysCacheGetAttrNotNull(i32 noundef 47, ptr noundef %49, i16 noundef signext 27)
  store i64 %50, ptr %7, align 8
  %51 = load i64, ptr %7, align 8
  %52 = call ptr @DatumGetPointer(i64 noundef %51)
  %53 = call ptr @text_to_cstring(ptr noundef %52)
  store ptr %53, ptr %9, align 8
  %54 = load ptr, ptr %9, align 8
  %55 = load ptr, ptr %8, align 8
  %56 = call ptr @load_external_function(ptr noundef %54, ptr noundef %55, i1 noundef zeroext true, ptr noundef %5)
  %57 = load ptr, ptr %5, align 8
  %58 = load ptr, ptr %8, align 8
  %59 = call ptr @fetch_finfo_record(ptr noundef %57, ptr noundef %58)
  %60 = load ptr, ptr %6, align 8
  call void @ReleaseSysCache(ptr noundef %60)
  store i64 0, ptr %2, align 8
  store i32 1, ptr %10, align 4
  br label %61

61:                                               ; preds = %43, %24
  call void @llvm.lifetime.end.p0(i64 8, ptr %9) #8
  call void @llvm.lifetime.end.p0(i64 8, ptr %8) #8
  call void @llvm.lifetime.end.p0(i64 8, ptr %7) #8
  call void @llvm.lifetime.end.p0(i64 8, ptr %6) #8
  call void @llvm.lifetime.end.p0(i64 8, ptr %5) #8
  call void @llvm.lifetime.end.p0(i64 4, ptr %4) #8
  %62 = load i64, ptr %2, align 8
  ret i64 %62
}