; Function Attrs: nounwind uwtable
define dso_local noundef i64 @fmgr_c_validator(ptr noundef readonly captures(none) %0) local_unnamed_addr #0 {
  %2 = alloca ptr, align 8
  %3 = getelementptr inbounds nuw i8, ptr %0, i64 32
  %4 = load i64, ptr %3, align 8
  %5 = trunc i64 %4 to i32
  call void @llvm.lifetime.start.p0(i64 8, ptr nonnull %2) #7
  %6 = load ptr, ptr %0, align 8
  %7 = getelementptr inbounds nuw i8, ptr %6, i64 8
  %8 = load i32, ptr %7, align 8
  %9 = tail call zeroext i1 @CheckFunctionValidatorAccess(i32 noundef %8, i32 noundef %5) #7
  br i1 %9, label %10, label %26

10:                                               ; preds = %1
  %11 = and i64 %4, 4294967295
  %12 = tail call ptr @SearchSysCache1(i32 noundef 47, i64 noundef %11) #7
  %.not = icmp eq ptr %12, null
  br i1 %.not, label %13, label %16

13:                                               ; preds = %10
  %14 = tail call zeroext i1 @errstart_cold(i32 noundef 21, ptr noundef null) #8
  tail call void @llvm.assume(i1 %14)
  %15 = tail call i32 (ptr, ...) @errmsg_internal(ptr noundef nonnull @.str.27, i32 noundef %5) #7
  tail call void @errfinish(ptr noundef nonnull @.str.2, i32 noundef 788, ptr noundef nonnull @__func__.fmgr_c_validator) #7
  unreachable

16:                                               ; preds = %10
  %17 = tail call i64 @SysCacheGetAttrNotNull(i32 noundef 47, ptr noundef nonnull %12, i16 noundef signext 26) #7
  %18 = inttoptr i64 %17 to ptr
  %19 = tail call ptr @text_to_cstring(ptr noundef %18) #7
  %20 = tail call i64 @SysCacheGetAttrNotNull(i32 noundef 47, ptr noundef nonnull %12, i16 noundef signext 27) #7
  %21 = inttoptr i64 %20 to ptr
  %22 = tail call ptr @text_to_cstring(ptr noundef %21) #7
  %23 = call ptr @load_external_function(ptr noundef %22, ptr noundef %19, i1 noundef zeroext true, ptr noundef nonnull %2) #7
  %24 = load ptr, ptr %2, align 8
  %25 = call ptr @fetch_finfo_record(ptr noundef %24, ptr noundef %19) #7
  call void @ReleaseSysCache(ptr noundef nonnull %12) #7
  br label %26

26:                                               ; preds = %1, %16
  call void @llvm.lifetime.end.p0(i64 8, ptr nonnull %2) #7
  ret i64 0
}